target datalayout = "e-m:e-p270:32:32-p271:32:32-p272:64:64-i64:64-i128:128-f80:128-n8:16:32:64-S128"
target triple = "x86_64-unknown-linux-gnu"

%"class.icu_75::TransliterationRuleSet" = type { ptr, ptr, ptr, [257 x i32], i32 }

; Function Attrs: mustprogress uwtable
define void @_ZN6icu_7522TransliterationRuleSet7setDataEPKNS_23TransliterationRuleDataE(ptr noundef nonnull align 8 dereferenceable(1056) %this, ptr noundef %d) #0 align 2 {
entry:
  %this.addr = alloca ptr, align 8
  %d.addr = alloca ptr, align 8
  %len = alloca i32, align 4
  %i = alloca i32, align 4
  store ptr %this, ptr %this.addr, align 8
  store ptr %d, ptr %d.addr, align 8
  %this1 = load ptr, ptr %this.addr, align 8
  %index = getelementptr inbounds %"class.icu_75::TransliterationRuleSet", ptr %this1, i32 0, i32 3
  %arrayidx = getelementptr inbounds [257 x i32], ptr %index, i64 0, i64 256
  %0 = load i32, ptr %arrayidx, align 8
  store i32 %0, ptr %len, align 4
  store i32 0, ptr %i, align 4
  br label %for.cond

for.cond:                                         ; preds = %for.inc, %entry
  %1 = load i32, ptr %i, align 4
  %2 = load i32, ptr %len, align 4
  %cmp = icmp slt i32 %1, %2
  br i1 %cmp, label %for.body, label %for.end

for.body:                                         ; preds = %for.cond
  %rules = getelementptr inbounds %"class.icu_75::TransliterationRuleSet", ptr %this1, i32 0, i32 2
  %3 = load ptr, ptr %rules, align 8
  %4 = load i32, ptr %i, align 4
  %idxprom = sext i32 %4 to i64
  %arrayidx2 = getelementptr inbounds ptr, ptr %3, i64 %idxprom
  %5 = load ptr, ptr %arrayidx2, align 8
  %6 = load ptr, ptr %d.addr, align 8
  call void @_ZN6icu_7519TransliterationRule7setDataEPKNS_23TransliterationRuleDataE(ptr noundef nonnull align 8 dereferenceable(136) %5, ptr noundef %6)
  br label %for.inc

for.inc:                                          ; preds = %for.body
  %7 = load i32, ptr %i, align 4
  %inc = add nsw i32 %7, 1
  store i32 %inc, ptr %i, align 4
  br label %for.cond, !llvm.loop !6

for.end:                                          ; preds = %for.cond
  ret void
}