; Function Attrs: mustprogress uwtable
define void @_ZN6icu_7522TransliterationRuleSet7setDataEPKNS_23TransliterationRuleDataE(ptr nocapture noundef nonnull readonly align 8 dereferenceable(1056) %this, ptr noundef %d) local_unnamed_addr #0 align 2 {
entry:
  %arrayidx = getelementptr inbounds i8, ptr %this, i64 1048
  %0 = load i32, ptr %arrayidx, align 8
  %cmp3 = icmp sgt i32 %0, 0
  br i1 %cmp3, label %for.body.lr.ph, label %for.end

for.body.lr.ph:                                   ; preds = %entry
  %rules = getelementptr inbounds i8, ptr %this, i64 16
  %wide.trip.count = zext nneg i32 %0 to i64
  br label %for.body

for.body:                                         ; preds = %for.body.lr.ph, %for.body
  %indvars.iv = phi i64 [ 0, %for.body.lr.ph ], [ %indvars.iv.next, %for.body ]
  %1 = load ptr, ptr %rules, align 8
  %arrayidx2 = getelementptr inbounds ptr, ptr %1, i64 %indvars.iv
  %2 = load ptr, ptr %arrayidx2, align 8
  tail call void @_ZN6icu_7519TransliterationRule7setDataEPKNS_23TransliterationRuleDataE(ptr noundef nonnull align 8 dereferenceable(136) %2, ptr noundef %d)
  %indvars.iv.next = add nuw nsw i64 %indvars.iv, 1
  %exitcond.not = icmp eq i64 %indvars.iv.next, %wide.trip.count
  br i1 %exitcond.not, label %for.end, label %for.body, !llvm.loop !6

for.end:                                          ; preds = %for.body, %entry
  ret void
}